target datalayout = "e-m:e-p270:32:32-p271:32:32-p272:64:64-i64:64-i128:128-f80:128-n8:16:32:64-S128"
target triple = "x86_64-pc-linux-gnu"

%struct._zval_struct = type { %union._zend_value, %union.anon, %union.anon.2 }
%union._zend_value = type { i64 }
%union.anon = type { i32 }
%union.anon.2 = type { i32 }

; Function Attrs: nounwind uwtable
define dso_local void @zend_declare_class_constant_double(ptr noundef %0, ptr noundef %1, i64 noundef %2, double noundef %3) #0 {
  %5 = alloca ptr, align 8
  %6 = alloca ptr, align 8
  %7 = alloca i64, align 8
  %8 = alloca double, align 8
  %9 = alloca %struct._zval_struct, align 8
  %10 = alloca ptr, align 8
  store ptr %0, ptr %5, align 8, !tbaa !66
  store ptr %1, ptr %6, align 8, !tbaa !47
  store i64 %2, ptr %7, align 8, !tbaa !85
  store double %3, ptr %8, align 8, !tbaa !86
  call void @llvm.lifetime.start.p0(i64 16, ptr %9) #21
  br label %11

11:                                               ; preds = %4
  call void @llvm.lifetime.start.p0(i64 8, ptr %10) #21
  store ptr %9, ptr %10, align 8, !tbaa !8
  %12 = load double, ptr %8, align 8, !tbaa !86
  %13 = load ptr, ptr %10, align 8, !tbaa !8
  %14 = getelementptr inbounds nuw %struct._zval_struct, ptr %13, i32 0, i32 0
  store double %12, ptr %14, align 8, !tbaa !44
  %15 = load ptr, ptr %10, align 8, !tbaa !8
  %16 = getelementptr inbounds nuw %struct._zval_struct, ptr %15, i32 0, i32 1
  store i32 5, ptr %16, align 8, !tbaa !44
  call void @llvm.lifetime.end.p0(i64 8, ptr %10) #21
  br label %17

17:                                               ; preds = %11
  br label %18

18:                                               ; preds = %17
  %19 = load ptr, ptr %5, align 8, !tbaa !66
  %20 = load ptr, ptr %6, align 8, !tbaa !47
  %21 = load i64, ptr %7, align 8, !tbaa !85
  call void @zend_declare_class_constant(ptr noundef %19, ptr noundef %20, i64 noundef %21, ptr noundef %9)
  call void @llvm.lifetime.end.p0(i64 16, ptr %9) #21
  ret void
}