; Function Attrs: nounwind uwtable
define dso_local void @zend_declare_class_constant_double(ptr noundef %0, ptr noundef %1, i64 noundef %2, double noundef %3) local_unnamed_addr #2 {
  %5 = alloca %struct._zval_struct, align 8
  call void @llvm.lifetime.start.p0(i64 16, ptr nonnull %5) #34
  store double %3, ptr %5, align 8, !tbaa !42
  %6 = getelementptr inbounds nuw i8, ptr %5, i64 8
  store i32 5, ptr %6, align 8, !tbaa !42
  call void @zend_declare_class_constant(ptr noundef %0, ptr noundef %1, i64 noundef %2, ptr noundef nonnull %5)
  call void @llvm.lifetime.end.p0(i64 16, ptr nonnull %5) #34
  ret void
}